target datalayout = "e-m:e-p270:32:32-p271:32:32-p272:64:64-i64:64-i128:128-f80:128-n8:16:32:64-S128"
target triple = "x86_64-pc-linux-gnu"

%class.mmu_t = type { %"class.std::map", %"class.std::vector", ptr, ptr, %class.memtracer_list_t, i64, i16, i64, [1024 x %struct.icache_entry_t], [256 x %struct.tlb_entry_t], [256 x i64], [256 x i64], [256 x i64], i8, i8, i8, ptr }
%"class.std::map" = type { %"class.std::_Rb_tree" }
%"class.std::_Rb_tree" = type { %"struct.std::_Rb_tree<unsigned long, std::pair<const unsigned long, unsigned long>, std::_Select1st<std::pair<const unsigned long, unsigned long>>, std::less<unsigned long>>::_Rb_tree_impl" }
%"struct.std::_Rb_tree<unsigned long, std::pair<const unsigned long, unsigned long>, std::_Select1st<std::pair<const unsigned long, unsigned long>>, std::less<unsigned long>>::_Rb_tree_impl" = type { [8 x i8], %"struct.std::_Rb_tree_header" }
%"struct.std::_Rb_tree_header" = type { %"struct.std::_Rb_tree_node_base", i64 }
%"struct.std::_Rb_tree_node_base" = type { i32, ptr, ptr, ptr }
%"class.std::vector" = type { %"struct.std::_Vector_base" }
%"struct.std::_Vector_base" = type { %"struct.std::_Vector_base<std::pair<unsigned long, unsigned long>, std::allocator<std::pair<unsigned long, unsigned long>>>::_Vector_impl" }
%"struct.std::_Vector_base<std::pair<unsigned long, unsigned long>, std::allocator<std::pair<unsigned long, unsigned long>>>::_Vector_impl" = type { %"struct.std::_Vector_base<std::pair<unsigned long, unsigned long>, std::allocator<std::pair<unsigned long, unsigned long>>>::_Vector_impl_data" }
%"struct.std::_Vector_base<std::pair<unsigned long, unsigned long>, std::allocator<std::pair<unsigned long, unsigned long>>>::_Vector_impl_data" = type { ptr, ptr, ptr }
%class.memtracer_list_t = type { %class.memtracer_t, %"class.std::vector.3" }
%class.memtracer_t = type { ptr }
%"class.std::vector.3" = type { %"struct.std::_Vector_base.4" }
%"struct.std::_Vector_base.4" = type { %"struct.std::_Vector_base<memtracer_t *, std::allocator<memtracer_t *>>::_Vector_impl" }
%"struct.std::_Vector_base<memtracer_t *, std::allocator<memtracer_t *>>::_Vector_impl" = type { %"struct.std::_Vector_base<memtracer_t *, std::allocator<memtracer_t *>>::_Vector_impl_data" }
%"struct.std::_Vector_base<memtracer_t *, std::allocator<memtracer_t *>>::_Vector_impl_data" = type { ptr, ptr, ptr }
%struct.icache_entry_t = type { i64, ptr, %struct.insn_fetch_t }
%struct.insn_fetch_t = type { ptr, %class.insn_t }
%class.insn_t = type { i64 }
%struct.tlb_entry_t = type { ptr, i64 }
%struct.mem_access_info_t = type { i64, i64, i64, i8, %struct.xlate_flags_t, i32 }
%struct.xlate_flags_t = type { i8 }

; Function Attrs: mustprogress uwtable
define noundef i64 @_ZN5mmu_t9translateE17mem_access_info_tm(ptr noundef nonnull align 8 dereferenceable(43168) %0, ptr noundef byval(%struct.mem_access_info_t) align 8 %1, i64 noundef %2) #4 align 2 {
  %4 = alloca i64, align 8
  %5 = alloca ptr, align 8
  %6 = alloca i64, align 8
  %7 = alloca i64, align 8
  %8 = alloca i32, align 4
  %9 = alloca i32, align 4
  %10 = alloca i8, align 1
  %11 = alloca i64, align 8
  %12 = alloca i64, align 8
  %13 = alloca %struct.mem_access_info_t, align 8
  store ptr %0, ptr %5, align 8, !tbaa !3
  store i64 %2, ptr %6, align 8, !tbaa !57
  %14 = load ptr, ptr %5, align 8
  call void @llvm.lifetime.start.p0(i64 8, ptr %7) #3
  %15 = getelementptr inbounds nuw %struct.mem_access_info_t, ptr %1, i32 0, i32 1
  %16 = load i64, ptr %15, align 8, !tbaa !76
  store i64 %16, ptr %7, align 8, !tbaa !57
  call void @llvm.lifetime.start.p0(i64 4, ptr %8) #3
  %17 = getelementptr inbounds nuw %struct.mem_access_info_t, ptr %1, i32 0, i32 5
  %18 = load i32, ptr %17, align 4, !tbaa !79
  store i32 %18, ptr %8, align 4, !tbaa !66
  %19 = getelementptr inbounds nuw %class.mmu_t, ptr %14, i32 0, i32 3
  %20 = load ptr, ptr %19, align 8, !tbaa !41
  %21 = icmp ne ptr %20, null
  br i1 %21, label %24, label %22

22:                                               ; preds = %3
  %23 = load i64, ptr %7, align 8, !tbaa !57
  store i64 %23, ptr %4, align 8
  store i32 1, ptr %9, align 4
  br label %61

24:                                               ; preds = %3
  call void @llvm.lifetime.start.p0(i64 1, ptr %10) #3
  %25 = getelementptr inbounds nuw %struct.mem_access_info_t, ptr %1, i32 0, i32 3
  %26 = load i8, ptr %25, align 8, !tbaa !80, !range !68, !noundef !69
  %27 = trunc i8 %26 to i1
  %28 = zext i1 %27 to i8
  store i8 %28, ptr %10, align 1, !tbaa !65
  call void @llvm.lifetime.start.p0(i64 8, ptr %11) #3
  %29 = getelementptr inbounds nuw %struct.mem_access_info_t, ptr %1, i32 0, i32 2
  %30 = load i64, ptr %29, align 8, !tbaa !81
  store i64 %30, ptr %11, align 8, !tbaa !57
  call void @llvm.lifetime.start.p0(i64 8, ptr %12) #3
  call void @llvm.memcpy.p0.p0.i64(ptr align 8 %13, ptr align 8 %1, i64 32, i1 false), !tbaa.struct !82
  %31 = call noundef i64 @_ZN5mmu_t4walkE17mem_access_info_t(ptr noundef nonnull align 8 dereferenceable(43168) %14, ptr noundef byval(%struct.mem_access_info_t) align 8 %13)
  %32 = load i64, ptr %7, align 8, !tbaa !57
  %33 = and i64 %32, 4095
  %34 = or i64 %31, %33
  store i64 %34, ptr %12, align 8, !tbaa !57
  %35 = load i64, ptr %12, align 8, !tbaa !57
  %36 = load i64, ptr %6, align 8, !tbaa !57
  %37 = getelementptr inbounds nuw %struct.mem_access_info_t, ptr %1, i32 0, i32 4
  %38 = load i8, ptr %37, align 1
  %39 = lshr i8 %38, 3
  %40 = and i8 %39, 1
  %41 = trunc i8 %40 to i1
  br i1 %41, label %42, label %43

42:                                               ; preds = %24
  br label %45

43:                                               ; preds = %24
  %44 = load i32, ptr %8, align 4, !tbaa !66
  br label %45

45:                                               ; preds = %43, %42
  %46 = phi i32 [ 1, %42 ], [ %44, %43 ]
  %47 = load i64, ptr %11, align 8, !tbaa !57
  %48 = getelementptr inbounds nuw %struct.mem_access_info_t, ptr %1, i32 0, i32 4
  %49 = load i8, ptr %48, align 1
  %50 = lshr i8 %49, 1
  %51 = and i8 %50, 1
  %52 = trunc i8 %51 to i1
  %53 = call noundef zeroext i1 @_ZN5mmu_t6pmp_okEmm11access_typemb(ptr noundef nonnull align 8 dereferenceable(43168) %14, i64 noundef %35, i64 noundef %36, i32 noundef %46, i64 noundef %47, i1 noundef zeroext %52)
  br i1 %53, label %59, label %54

54:                                               ; preds = %45
  %55 = load i8, ptr %10, align 1, !tbaa !65, !range !68, !noundef !69
  %56 = trunc i8 %55 to i1
  %57 = load i64, ptr %7, align 8, !tbaa !57
  %58 = load i32, ptr %8, align 4, !tbaa !66
  call void @_Z22throw_access_exceptionbm11access_type(i1 noundef zeroext %56, i64 noundef %57, i32 noundef %58)
  br label %59

59:                                               ; preds = %54, %45
  %60 = load i64, ptr %12, align 8, !tbaa !57
  store i64 %60, ptr %4, align 8
  store i32 1, ptr %9, align 4
  call void @llvm.lifetime.end.p0(i64 8, ptr %12) #3
  call void @llvm.lifetime.end.p0(i64 8, ptr %11) #3
  call void @llvm.lifetime.end.p0(i64 1, ptr %10) #3
  br label %61

61:                                               ; preds = %59, %22
  call void @llvm.lifetime.end.p0(i64 4, ptr %8) #3
  call void @llvm.lifetime.end.p0(i64 8, ptr %7) #3
  %62 = load i64, ptr %4, align 8
  ret i64 %62
}