; Function Attrs: mustprogress uwtable
define noundef i64 @_ZN5mmu_t9translateE17mem_access_info_tm(ptr noundef nonnull align 8 dereferenceable(43168) %0, ptr noundef readonly byval(%struct.mem_access_info_t) align 8 captures(none) %1, i64 noundef %2) local_unnamed_addr #11 align 2 {
  %4 = getelementptr inbounds nuw i8, ptr %1, i64 8
  %5 = load i64, ptr %4, align 8, !tbaa !63
  %6 = getelementptr inbounds nuw i8, ptr %1, i64 28
  %7 = load i32, ptr %6, align 4, !tbaa !67
  %8 = getelementptr inbounds nuw i8, ptr %0, i64 80
  %9 = load ptr, ptr %8, align 8, !tbaa !39
  %.not = icmp eq ptr %9, null
  br i1 %.not, label %27, label %10

10:                                               ; preds = %3
  %11 = getelementptr inbounds nuw i8, ptr %1, i64 24
  %12 = load i8, ptr %11, align 8, !tbaa !68, !range !69, !noundef !70
  %13 = getelementptr inbounds nuw i8, ptr %1, i64 16
  %14 = load i64, ptr %13, align 8, !tbaa !71
  %15 = tail call noundef i64 @_ZN5mmu_t4walkE17mem_access_info_t(ptr noundef nonnull align 8 dereferenceable(43168) %0, ptr noundef nonnull byval(%struct.mem_access_info_t) align 8 %1)
  %16 = and i64 %5, 4095
  %17 = or i64 %15, %16
  %18 = getelementptr inbounds nuw i8, ptr %1, i64 25
  %19 = load i8, ptr %18, align 1
  %20 = and i8 %19, 8
  %.not11 = icmp eq i8 %20, 0
  %21 = select i1 %.not11, i32 %7, i32 1
  %22 = and i8 %19, 2
  %23 = icmp ne i8 %22, 0
  %24 = tail call noundef zeroext i1 @_ZN5mmu_t6pmp_okEmm11access_typemb(ptr noundef nonnull align 8 dereferenceable(43168) %0, i64 noundef %17, i64 noundef %2, i32 noundef %21, i64 noundef %14, i1 noundef zeroext %23)
  br i1 %24, label %27, label %25

25:                                               ; preds = %10
  %26 = trunc nuw i8 %12 to i1
  tail call void @_Z22throw_access_exceptionbm11access_type(i1 noundef zeroext %26, i64 noundef %5, i32 noundef %7)
  unreachable

27:                                               ; preds = %10, %3
  %.0 = phi i64 [ %5, %3 ], [ %17, %10 ]
  ret i64 %.0
}